; Function Attrs: mustprogress nounwind uwtable
define dso_local void @_ZNK4llvm18AArch64InstPrinter12printRegNameERNS_11raw_ostreamENS_10MCRegisterE(ptr noundef nonnull align 8 dereferenceable(58) %0, ptr noundef nonnull align 8 dereferenceable(48) %1, i32 %2) unnamed_addr #1 align 2 {
_ZN4llvm9StringRefC2EPKc.exit.i.i:
  %3 = alloca %"class.llvm::MCInstPrinter::WithMarkup", align 8
  call void @_ZNK4llvm13MCInstPrinter6markupERNS_11raw_ostreamENS0_6MarkupE(ptr dead_on_unwind nonnull writable sret(%"class.llvm::MCInstPrinter::WithMarkup") align 8 %3, ptr noundef nonnull align 8 dereferenceable(58) %0, ptr noundef nonnull align 8 dereferenceable(48) %1, i32 noundef 1) #22
  %4 = add i32 %2, -1
  %5 = zext i32 %4 to i64
  %6 = getelementptr inbounds [701 x i16], ptr @_ZZN4llvm23AArch64AppleInstPrinter15getRegisterNameENS_10MCRegisterEjE24RegAsmOffsetNoRegAltName, i64 0, i64 %5
  %7 = load i16, ptr %6, align 2
  %8 = zext i16 %7 to i64
  %9 = getelementptr inbounds i8, ptr @_ZZN4llvm18AArch64InstPrinter15getRegisterNameENS_10MCRegisterEjE19AsmStrsNoRegAltName, i64 %8
  %10 = load ptr, ptr %3, align 8
  %11 = call noundef i64 @strlen(ptr noundef nonnull dereferenceable(1) %9) #22
  %12 = getelementptr inbounds nuw i8, ptr %10, i64 24
  %13 = load ptr, ptr %12, align 8
  %14 = getelementptr inbounds nuw i8, ptr %10, i64 32
  %15 = load ptr, ptr %14, align 8
  %16 = ptrtoint ptr %13 to i64
  %17 = ptrtoint ptr %15 to i64
  %18 = sub i64 %16, %17
  %19 = icmp ugt i64 %11, %18
  br i1 %19, label %20, label %22

20:                                               ; preds = %_ZN4llvm9StringRefC2EPKc.exit.i.i
  %21 = call noundef nonnull align 8 dereferenceable(48) ptr @_ZN4llvm11raw_ostream5writeEPKcm(ptr noundef nonnull align 8 dereferenceable(48) %10, ptr noundef nonnull %9, i64 noundef %11) #22
  br label %_ZN4llvm13MCInstPrinter10WithMarkuplsIPKcEERS1_RKT_.exit

22:                                               ; preds = %_ZN4llvm9StringRefC2EPKc.exit.i.i
  %.not.i2.i.i = icmp eq i64 %11, 0
  br i1 %.not.i2.i.i, label %_ZN4llvm13MCInstPrinter10WithMarkuplsIPKcEERS1_RKT_.exit, label %23

23:                                               ; preds = %22
  call void @llvm.memcpy.p0.p0.i64(ptr align 1 %15, ptr nonnull align 1 %9, i64 %11, i1 false)
  %24 = load ptr, ptr %14, align 8
  %25 = getelementptr inbounds i8, ptr %24, i64 %11
  store ptr %25, ptr %14, align 8
  br label %_ZN4llvm13MCInstPrinter10WithMarkuplsIPKcEERS1_RKT_.exit

_ZN4llvm13MCInstPrinter10WithMarkuplsIPKcEERS1_RKT_.exit: ; preds = %20, %22, %23
  call void @_ZN4llvm13MCInstPrinter10WithMarkupD1Ev(ptr noundef nonnull align 8 dereferenceable(10) %3) #22
  ret void
}